; Function Attrs: mustprogress nounwind uwtable
define noundef zeroext i1 @_ZNK7glslang13TIntermediate19isConversionAllowedENS_9TOperatorEPNS_12TIntermTypedE(ptr nocapture noundef nonnull readonly align 8 dereferenceable(2024) %0, i32 noundef %1, ptr noundef %2) local_unnamed_addr #0 align 2 {
  %4 = load ptr, ptr %2, align 8
  %5 = getelementptr inbounds i8, ptr %4, i64 256
  %6 = load ptr, ptr %5, align 8
  %7 = tail call noundef i32 %6(ptr noundef nonnull align 8 dereferenceable(184) %2) #17
  switch i32 %7, label %40 [
    i32 0, label %41
    i32 13, label %8
    i32 14, label %8
    i32 17, label %8
  ]

8:                                                ; preds = %3, %3, %3
  %9 = icmp eq i32 %1, 5
  br i1 %9, label %40, label %10

10:                                               ; preds = %8
  %11 = getelementptr inbounds i8, ptr %0, i64 768
  %12 = load i32, ptr %11, align 8
  %13 = icmp eq i32 %12, 2
  br i1 %13, label %14, label %20

14:                                               ; preds = %10
  %15 = load ptr, ptr %2, align 8
  %16 = getelementptr inbounds i8, ptr %15, i64 256
  %17 = load ptr, ptr %16, align 8
  %18 = tail call noundef i32 %17(ptr noundef nonnull align 8 dereferenceable(184) %2) #17
  %19 = icmp eq i32 %18, 14
  br i1 %19, label %40, label %20

20:                                               ; preds = %14, %10
  %21 = load ptr, ptr %2, align 8
  %22 = getelementptr inbounds i8, ptr %21, i64 256
  %23 = load ptr, ptr %22, align 8
  %24 = tail call noundef i32 %23(ptr noundef nonnull align 8 dereferenceable(184) %2) #17
  %25 = icmp eq i32 %24, 14
  %26 = icmp eq i32 %1, 585
  %or.cond = and i1 %26, %25
  br i1 %or.cond, label %27, label %41

27:                                               ; preds = %20
  %28 = load ptr, ptr %2, align 8
  %29 = getelementptr inbounds i8, ptr %28, i64 32
  %30 = load ptr, ptr %29, align 8
  %31 = tail call noundef ptr %30(ptr noundef nonnull align 8 dereferenceable(32) %2) #17
  %.not = icmp eq ptr %31, null
  br i1 %.not, label %41, label %32

32:                                               ; preds = %27
  %33 = load ptr, ptr %2, align 8
  %34 = getelementptr inbounds i8, ptr %33, i64 32
  %35 = load ptr, ptr %34, align 8
  %36 = tail call noundef ptr %35(ptr noundef nonnull align 8 dereferenceable(32) %2) #17
  %37 = getelementptr inbounds i8, ptr %36, i64 184
  %38 = load i32, ptr %37, align 8
  %39 = icmp eq i32 %38, 578
  br i1 %39, label %40, label %41

40:                                               ; preds = %3, %32, %14, %8
  br label %41

41:                                               ; preds = %20, %27, %32, %3, %40
  %.0 = phi i1 [ true, %40 ], [ false, %3 ], [ false, %32 ], [ false, %27 ], [ false, %20 ]
  ret i1 %.0
}